ccopy_reg
_reconstructor
p0
(cfipy.meshes.uniformGrid2D
UniformGrid2D
p1
c__builtin__
object
p2
Ntp3
Rp4
(dp5
Vdx
p6
F1.0
sVdy
p7
F1.0
sVnx
p8
I400
sVny
p9
I400
sVorigin
p10
((I0
tp11
(I0
tp12
tp13
sVoverlap
p14
I2
sV_RepresentationClass
p15
cfipy.meshes.representations.gridRepresentation
_Grid2DRepresentation
p16
sb.